; Function Attrs: nounwind sspstrong uwtable
define internal noundef i64 @tm_plus(i64 noundef %0, i64 noundef %1) #1 {
  %3 = tail call i64 @rb_obj_class(i64 noundef %0) #21
  %4 = tail call ptr @rb_check_typeddata(i64 noundef %0, ptr noundef nonnull @time_data_type) #21
  %5 = getelementptr inbounds nuw i8, ptr %4, i64 40
  %6 = load i64, ptr %5, align 8
  %7 = and i64 %6, 61572651155456
  %.not.i = icmp eq i64 %7, 26388279066624
  br i1 %.not.i, label %8, label %get_timeval.exit

8:                                                ; preds = %2
  %9 = load i64, ptr @rb_eTypeError, align 8, !tbaa !11
  %10 = tail call i64 @rb_obj_class(i64 noundef %0) #21
  tail call void (i64, ptr, ...) @rb_raise(i64 noundef %9, ptr noundef nonnull @.str.92, i64 noundef %10) #22
  unreachable

get_timeval.exit:                                 ; preds = %2
  %11 = tail call fastcc i64 @time_add0(i64 noundef %3, ptr noundef nonnull %4, i64 noundef %1, i32 noundef 1)
  ret i64 %11
}